target datalayout = "e-m:e-p270:32:32-p271:32:32-p272:64:64-i64:64-i128:128-f80:128-n8:16:32:64-S128"
target triple = "x86_64-pc-linux-gnu"

; Function Attrs: nounwind uwtable
define i32 @Fxu_PairHashKeyArray(ptr noundef %0, ptr noundef %1, ptr noundef %2, i32 noundef %3, i32 noundef %4) #0 {
  %6 = alloca ptr, align 8
  %7 = alloca ptr, align 8
  %8 = alloca ptr, align 8
  %9 = alloca i32, align 4
  %10 = alloca i32, align 4
  %11 = alloca i32, align 4
  %12 = alloca i32, align 4
  %13 = alloca i32, align 4
  %14 = alloca i32, align 4
  store ptr %0, ptr %6, align 8, !tbaa !21
  store ptr %1, ptr %7, align 8, !tbaa !23
  store ptr %2, ptr %8, align 8, !tbaa !23
  store i32 %3, ptr %9, align 4, !tbaa !25
  store i32 %4, ptr %10, align 4, !tbaa !25
  call void @llvm.lifetime.start.p0(i64 4, ptr %11) #6
  store i32 100, ptr %11, align 4, !tbaa !25
  call void @llvm.lifetime.start.p0(i64 4, ptr %12) #6
  store i32 200, ptr %12, align 4, !tbaa !25
  call void @llvm.lifetime.start.p0(i64 4, ptr %13) #6
  call void @llvm.lifetime.start.p0(i64 4, ptr %14) #6
  store i32 0, ptr %14, align 4, !tbaa !25
  store i32 0, ptr %13, align 4, !tbaa !25
  br label %15

15:                                               ; preds = %34, %5
  %16 = load i32, ptr %13, align 4, !tbaa !25
  %17 = load i32, ptr %9, align 4, !tbaa !25
  %18 = icmp slt i32 %16, %17
  br i1 %18, label %19, label %37

19:                                               ; preds = %15
  %20 = load i32, ptr %11, align 4, !tbaa !25
  %21 = load i32, ptr %13, align 4, !tbaa !25
  %22 = add nsw i32 %20, %21
  %23 = sext i32 %22 to i64
  %24 = getelementptr inbounds [304 x i32], ptr @s_Primes, i64 0, i64 %23
  %25 = load i32, ptr %24, align 4, !tbaa !25
  %26 = load ptr, ptr %7, align 8, !tbaa !23
  %27 = load i32, ptr %13, align 4, !tbaa !25
  %28 = sext i32 %27 to i64
  %29 = getelementptr inbounds i32, ptr %26, i64 %28
  %30 = load i32, ptr %29, align 4, !tbaa !25
  %31 = mul nsw i32 %25, %30
  %32 = load i32, ptr %14, align 4, !tbaa !25
  %33 = xor i32 %32, %31
  store i32 %33, ptr %14, align 4, !tbaa !25
  br label %34

34:                                               ; preds = %19
  %35 = load i32, ptr %13, align 4, !tbaa !25
  %36 = add nsw i32 %35, 1
  store i32 %36, ptr %13, align 4, !tbaa !25
  br label %15, !llvm.loop !26

37:                                               ; preds = %15
  store i32 0, ptr %13, align 4, !tbaa !25
  br label %38

38:                                               ; preds = %57, %37
  %39 = load i32, ptr %13, align 4, !tbaa !25
  %40 = load i32, ptr %10, align 4, !tbaa !25
  %41 = icmp slt i32 %39, %40
  br i1 %41, label %42, label %60

42:                                               ; preds = %38
  %43 = load i32, ptr %12, align 4, !tbaa !25
  %44 = load i32, ptr %13, align 4, !tbaa !25
  %45 = add nsw i32 %43, %44
  %46 = sext i32 %45 to i64
  %47 = getelementptr inbounds [304 x i32], ptr @s_Primes, i64 0, i64 %46
  %48 = load i32, ptr %47, align 4, !tbaa !25
  %49 = load ptr, ptr %8, align 8, !tbaa !23
  %50 = load i32, ptr %13, align 4, !tbaa !25
  %51 = sext i32 %50 to i64
  %52 = getelementptr inbounds i32, ptr %49, i64 %51
  %53 = load i32, ptr %52, align 4, !tbaa !25
  %54 = mul nsw i32 %48, %53
  %55 = load i32, ptr %14, align 4, !tbaa !25
  %56 = xor i32 %55, %54
  store i32 %56, ptr %14, align 4, !tbaa !25
  br label %57

57:                                               ; preds = %42
  %58 = load i32, ptr %13, align 4, !tbaa !25
  %59 = add nsw i32 %58, 1
  store i32 %59, ptr %13, align 4, !tbaa !25
  br label %38, !llvm.loop !28

60:                                               ; preds = %38
  %61 = load i32, ptr %14, align 4, !tbaa !25
  call void @llvm.lifetime.end.p0(i64 4, ptr %14) #6
  call void @llvm.lifetime.end.p0(i64 4, ptr %13) #6
  call void @llvm.lifetime.end.p0(i64 4, ptr %12) #6
  call void @llvm.lifetime.end.p0(i64 4, ptr %11) #6
  ret i32 %61
}