; Function Attrs: nofree norecurse nosync nounwind memory(argmem: read) uwtable
define i32 @Fxu_PairHashKeyArray(ptr noundef readnone captures(none) %0, ptr noundef readonly captures(none) %1, ptr noundef readonly captures(none) %2, i32 noundef %3, i32 noundef %4) local_unnamed_addr #2 {
  %6 = icmp sgt i32 %3, 0
  br i1 %6, label %.lr.ph.preheader, label %.preheader

.lr.ph.preheader:                                 ; preds = %5
  %wide.trip.count = zext nneg i32 %3 to i64
  br label %.lr.ph

.preheader:                                       ; preds = %.lr.ph, %5
  %.0.lcssa = phi i32 [ 0, %5 ], [ %14, %.lr.ph ]
  %7 = icmp sgt i32 %4, 0
  br i1 %7, label %.lr.ph22.preheader, label %._crit_edge

.lr.ph22.preheader:                               ; preds = %.preheader
  %wide.trip.count29 = zext nneg i32 %4 to i64
  br label %.lr.ph22

.lr.ph:                                           ; preds = %.lr.ph.preheader, %.lr.ph
  %indvars.iv = phi i64 [ 0, %.lr.ph.preheader ], [ %indvars.iv.next, %.lr.ph ]
  %.019 = phi i32 [ 0, %.lr.ph.preheader ], [ %14, %.lr.ph ]
  %8 = add nuw nsw i64 %indvars.iv, 100
  %9 = getelementptr inbounds nuw [304 x i32], ptr @s_Primes, i64 0, i64 %8
  %10 = load i32, ptr %9, align 4, !tbaa !17
  %11 = getelementptr inbounds nuw i32, ptr %1, i64 %indvars.iv
  %12 = load i32, ptr %11, align 4, !tbaa !17
  %13 = mul nsw i32 %12, %10
  %14 = xor i32 %13, %.019
  %indvars.iv.next = add nuw nsw i64 %indvars.iv, 1
  %exitcond.not = icmp eq i64 %indvars.iv.next, %wide.trip.count
  br i1 %exitcond.not, label %.preheader, label %.lr.ph, !llvm.loop !18

.lr.ph22:                                         ; preds = %.lr.ph22.preheader, %.lr.ph22
  %indvars.iv26 = phi i64 [ 0, %.lr.ph22.preheader ], [ %indvars.iv.next27, %.lr.ph22 ]
  %.121 = phi i32 [ %.0.lcssa, %.lr.ph22.preheader ], [ %21, %.lr.ph22 ]
  %15 = add nuw nsw i64 %indvars.iv26, 200
  %16 = getelementptr inbounds nuw [304 x i32], ptr @s_Primes, i64 0, i64 %15
  %17 = load i32, ptr %16, align 4, !tbaa !17
  %18 = getelementptr inbounds nuw i32, ptr %2, i64 %indvars.iv26
  %19 = load i32, ptr %18, align 4, !tbaa !17
  %20 = mul nsw i32 %19, %17
  %21 = xor i32 %20, %.121
  %indvars.iv.next27 = add nuw nsw i64 %indvars.iv26, 1
  %exitcond30.not = icmp eq i64 %indvars.iv.next27, %wide.trip.count29
  br i1 %exitcond30.not, label %._crit_edge, label %.lr.ph22, !llvm.loop !20

._crit_edge:                                      ; preds = %.lr.ph22, %.preheader
  %.1.lcssa = phi i32 [ %.0.lcssa, %.preheader ], [ %21, %.lr.ph22 ]
  ret i32 %.1.lcssa
}